target datalayout = "e-m:e-p270:32:32-p271:32:32-p272:64:64-i64:64-i128:128-f80:128-n8:16:32:64-S128"
target triple = "x86_64-pc-linux-gnu"

; Function Attrs: mustprogress uwtable
define hidden noundef zeroext i1 @_ZN3p3p5solveEPA3_dPddddddddddddddddddddd(ptr noundef nonnull align 8 dereferenceable(64) %0, ptr noundef %1, ptr noundef %2, double noundef %3, double noundef %4, double noundef %5, double noundef %6, double noundef %7, double noundef %8, double noundef %9, double noundef %10, double noundef %11, double noundef %12, double noundef %13, double noundef %14, double noundef %15, double noundef %16, double noundef %17, double noundef %18, double noundef %19, double noundef %20, double noundef %21, double noundef %22) #5 align 2 {
  %24 = alloca i1, align 1
  %25 = alloca ptr, align 8
  %26 = alloca ptr, align 8
  %27 = alloca ptr, align 8
  %28 = alloca double, align 8
  %29 = alloca double, align 8
  %30 = alloca double, align 8
  %31 = alloca double, align 8
  %32 = alloca double, align 8
  %33 = alloca double, align 8
  %34 = alloca double, align 8
  %35 = alloca double, align 8
  %36 = alloca double, align 8
  %37 = alloca double, align 8
  %38 = alloca double, align 8
  %39 = alloca double, align 8
  %40 = alloca double, align 8
  %41 = alloca double, align 8
  %42 = alloca double, align 8
  %43 = alloca double, align 8
  %44 = alloca double, align 8
  %45 = alloca double, align 8
  %46 = alloca double, align 8
  %47 = alloca double, align 8
  %48 = alloca [4 x [3 x [3 x double]]], align 16
  %49 = alloca [4 x [3 x double]], align 16
  %50 = alloca i8, align 1
  %51 = alloca i32, align 4
  %52 = alloca i32, align 4
  %53 = alloca i32, align 4
  %54 = alloca i32, align 4
  store ptr %0, ptr %25, align 8, !tbaa !3
  store ptr %1, ptr %26, align 8, !tbaa !67
  store ptr %2, ptr %27, align 8, !tbaa !67
  store double %3, ptr %28, align 8, !tbaa !32
  store double %4, ptr %29, align 8, !tbaa !32
  store double %5, ptr %30, align 8, !tbaa !32
  store double %6, ptr %31, align 8, !tbaa !32
  store double %7, ptr %32, align 8, !tbaa !32
  store double %8, ptr %33, align 8, !tbaa !32
  store double %9, ptr %34, align 8, !tbaa !32
  store double %10, ptr %35, align 8, !tbaa !32
  store double %11, ptr %36, align 8, !tbaa !32
  store double %12, ptr %37, align 8, !tbaa !32
  store double %13, ptr %38, align 8, !tbaa !32
  store double %14, ptr %39, align 8, !tbaa !32
  store double %15, ptr %40, align 8, !tbaa !32
  store double %16, ptr %41, align 8, !tbaa !32
  store double %17, ptr %42, align 8, !tbaa !32
  store double %18, ptr %43, align 8, !tbaa !32
  store double %19, ptr %44, align 8, !tbaa !32
  store double %20, ptr %45, align 8, !tbaa !32
  store double %21, ptr %46, align 8, !tbaa !32
  store double %22, ptr %47, align 8, !tbaa !32
  %55 = load ptr, ptr %25, align 8
  call void @llvm.lifetime.start.p0(i64 288, ptr %48) #3
  call void @llvm.memset.p0.i64(ptr align 16 %48, i8 0, i64 288, i1 false)
  call void @llvm.lifetime.start.p0(i64 96, ptr %49) #3
  call void @llvm.memset.p0.i64(ptr align 16 %49, i8 0, i64 96, i1 false)
  call void @llvm.lifetime.start.p0(i64 1, ptr %50) #3
  store i8 1, ptr %50, align 1, !tbaa !33
  call void @llvm.lifetime.start.p0(i64 4, ptr %51) #3
  %56 = getelementptr inbounds [4 x [3 x [3 x double]]], ptr %48, i64 0, i64 0
  %57 = getelementptr inbounds [4 x [3 x double]], ptr %49, i64 0, i64 0
  %58 = load double, ptr %28, align 8, !tbaa !32
  %59 = load double, ptr %29, align 8, !tbaa !32
  %60 = load double, ptr %30, align 8, !tbaa !32
  %61 = load double, ptr %31, align 8, !tbaa !32
  %62 = load double, ptr %32, align 8, !tbaa !32
  %63 = load double, ptr %33, align 8, !tbaa !32
  %64 = load double, ptr %34, align 8, !tbaa !32
  %65 = load double, ptr %35, align 8, !tbaa !32
  %66 = load double, ptr %36, align 8, !tbaa !32
  %67 = load double, ptr %37, align 8, !tbaa !32
  %68 = load double, ptr %38, align 8, !tbaa !32
  %69 = load double, ptr %39, align 8, !tbaa !32
  %70 = load double, ptr %40, align 8, !tbaa !32
  %71 = load double, ptr %41, align 8, !tbaa !32
  %72 = load double, ptr %42, align 8, !tbaa !32
  %73 = load double, ptr %43, align 8, !tbaa !32
  %74 = load double, ptr %44, align 8, !tbaa !32
  %75 = load double, ptr %45, align 8, !tbaa !32
  %76 = load double, ptr %46, align 8, !tbaa !32
  %77 = load double, ptr %47, align 8, !tbaa !32
  %78 = call noundef i32 @_ZN3p3p5solveEPA3_A3_dPS0_ddddddddddddddddddddb(ptr noundef nonnull align 8 dereferenceable(64) %55, ptr noundef %56, ptr noundef %57, double noundef %58, double noundef %59, double noundef %60, double noundef %61, double noundef %62, double noundef %63, double noundef %64, double noundef %65, double noundef %66, double noundef %67, double noundef %68, double noundef %69, double noundef %70, double noundef %71, double noundef %72, double noundef %73, double noundef %74, double noundef %75, double noundef %76, double noundef %77, i1 noundef zeroext true)
  store i32 %78, ptr %51, align 4, !tbaa !39
  %79 = load i32, ptr %51, align 4, !tbaa !39
  %80 = icmp eq i32 %79, 0
  br i1 %80, label %81, label %82

81:                                               ; preds = %23
  store i1 false, ptr %24, align 1
  store i32 1, ptr %52, align 4
  br label %125

82:                                               ; preds = %23
  call void @llvm.lifetime.start.p0(i64 4, ptr %53) #3
  store i32 0, ptr %53, align 4, !tbaa !39
  br label %83

83:                                               ; preds = %121, %82
  %84 = load i32, ptr %53, align 4, !tbaa !39
  %85 = icmp slt i32 %84, 3
  br i1 %85, label %87, label %86

86:                                               ; preds = %83
  store i32 2, ptr %52, align 4
  call void @llvm.lifetime.end.p0(i64 4, ptr %53) #3
  br label %124

87:                                               ; preds = %83
  call void @llvm.lifetime.start.p0(i64 4, ptr %54) #3
  store i32 0, ptr %54, align 4, !tbaa !39
  br label %88

88:                                               ; preds = %108, %87
  %89 = load i32, ptr %54, align 4, !tbaa !39
  %90 = icmp slt i32 %89, 3
  br i1 %90, label %92, label %91

91:                                               ; preds = %88
  store i32 5, ptr %52, align 4
  call void @llvm.lifetime.end.p0(i64 4, ptr %54) #3
  br label %111

92:                                               ; preds = %88
  %93 = getelementptr inbounds [4 x [3 x [3 x double]]], ptr %48, i64 0, i64 0
  %94 = load i32, ptr %53, align 4, !tbaa !39
  %95 = sext i32 %94 to i64
  %96 = getelementptr inbounds [3 x [3 x double]], ptr %93, i64 0, i64 %95
  %97 = load i32, ptr %54, align 4, !tbaa !39
  %98 = sext i32 %97 to i64
  %99 = getelementptr inbounds [3 x double], ptr %96, i64 0, i64 %98
  %100 = load double, ptr %99, align 8, !tbaa !32
  %101 = load ptr, ptr %26, align 8, !tbaa !67
  %102 = load i32, ptr %53, align 4, !tbaa !39
  %103 = sext i32 %102 to i64
  %104 = getelementptr inbounds [3 x double], ptr %101, i64 %103
  %105 = load i32, ptr %54, align 4, !tbaa !39
  %106 = sext i32 %105 to i64
  %107 = getelementptr inbounds [3 x double], ptr %104, i64 0, i64 %106
  store double %100, ptr %107, align 8, !tbaa !32
  br label %108

108:                                              ; preds = %92
  %109 = load i32, ptr %54, align 4, !tbaa !39
  %110 = add nsw i32 %109, 1
  store i32 %110, ptr %54, align 4, !tbaa !39
  br label %88, !llvm.loop !69

111:                                              ; preds = %91
  %112 = getelementptr inbounds [4 x [3 x double]], ptr %49, i64 0, i64 0
  %113 = load i32, ptr %53, align 4, !tbaa !39
  %114 = sext i32 %113 to i64
  %115 = getelementptr inbounds [3 x double], ptr %112, i64 0, i64 %114
  %116 = load double, ptr %115, align 8, !tbaa !32
  %117 = load ptr, ptr %27, align 8, !tbaa !67
  %118 = load i32, ptr %53, align 4, !tbaa !39
  %119 = sext i32 %118 to i64
  %120 = getelementptr inbounds double, ptr %117, i64 %119
  store double %116, ptr %120, align 8, !tbaa !32
  br label %121

121:                                              ; preds = %111
  %122 = load i32, ptr %53, align 4, !tbaa !39
  %123 = add nsw i32 %122, 1
  store i32 %123, ptr %53, align 4, !tbaa !39
  br label %83, !llvm.loop !70

124:                                              ; preds = %86
  store i1 true, ptr %24, align 1
  store i32 1, ptr %52, align 4
  br label %125

125:                                              ; preds = %124, %81
  call void @llvm.lifetime.end.p0(i64 4, ptr %51) #3
  call void @llvm.lifetime.end.p0(i64 1, ptr %50) #3
  call void @llvm.lifetime.end.p0(i64 96, ptr %49) #3
  call void @llvm.lifetime.end.p0(i64 288, ptr %48) #3
  %126 = load i1, ptr %24, align 1
  ret i1 %126
}