; Function Attrs: mustprogress uwtable
define hidden noundef zeroext i1 @_ZN3p3p5solveEPA3_dPddddddddddddddddddddd(ptr noundef nonnull readonly align 8 captures(none) dereferenceable(64) %0, ptr noundef writeonly captures(none) %1, ptr noundef writeonly captures(none) %2, double noundef %3, double noundef %4, double noundef %5, double noundef %6, double noundef %7, double noundef %8, double noundef %9, double noundef %10, double noundef %11, double noundef %12, double noundef %13, double noundef %14, double noundef %15, double noundef %16, double noundef %17, double noundef %18, double noundef %19, double noundef %20, double noundef %21, double noundef %22) local_unnamed_addr #6 align 2 {
  %24 = alloca [4 x [3 x [3 x double]]], align 16
  %25 = alloca [4 x [3 x double]], align 16
  call void @llvm.lifetime.start.p0(i64 288, ptr nonnull %24) #22
  call void @llvm.memset.p0.i64(ptr noundef nonnull align 16 dereferenceable(288) %24, i8 0, i64 288, i1 false)
  call void @llvm.lifetime.start.p0(i64 96, ptr nonnull %25) #22
  call void @llvm.memset.p0.i64(ptr noundef nonnull align 16 dereferenceable(96) %25, i8 0, i64 96, i1 false)
  %26 = call noundef i32 @_ZN3p3p5solveEPA3_A3_dPS0_ddddddddddddddddddddb(ptr noundef nonnull align 8 dereferenceable(64) %0, ptr noundef nonnull %24, ptr noundef nonnull %25, double noundef %3, double noundef %4, double noundef %5, double noundef %6, double noundef %7, double noundef %8, double noundef %9, double noundef %10, double noundef %11, double noundef %12, double noundef %13, double noundef %14, double noundef %15, double noundef %16, double noundef %17, double noundef %18, double noundef %19, double noundef %20, double noundef %21, double noundef %22, i1 noundef zeroext true)
  %27 = icmp ne i32 %26, 0
  br i1 %27, label %.preheader, label %.loopexit

.preheader:                                       ; preds = %23, %.preheader
  %indvar = phi i64 [ %indvar.next, %.preheader ], [ 0, %23 ]
  %28 = mul nuw nsw i64 %indvar, 24
  %scevgep = getelementptr nuw i8, ptr %1, i64 %28
  %scevgep39 = getelementptr nuw i8, ptr %24, i64 %28
  call void @llvm.memcpy.p0.p0.i64(ptr noundef nonnull align 8 dereferenceable(24) %scevgep, ptr noundef nonnull align 8 dereferenceable(24) %scevgep39, i64 24, i1 false), !tbaa !32
  %29 = getelementptr inbounds nuw [3 x double], ptr %25, i64 0, i64 %indvar
  %30 = load double, ptr %29, align 8, !tbaa !32
  %31 = getelementptr inbounds nuw double, ptr %2, i64 %indvar
  store double %30, ptr %31, align 8, !tbaa !32
  %indvar.next = add nuw nsw i64 %indvar, 1
  %exitcond.not = icmp eq i64 %indvar.next, 3
  br i1 %exitcond.not, label %.loopexit, label %.preheader, !llvm.loop !68

.loopexit:                                        ; preds = %.preheader, %23
  call void @llvm.lifetime.end.p0(i64 96, ptr nonnull %25) #22
  call void @llvm.lifetime.end.p0(i64 288, ptr nonnull %24) #22
  ret i1 %27
}